target datalayout = "e-m:e-p270:32:32-p271:32:32-p272:64:64-i64:64-i128:128-f80:128-n8:16:32:64-S128"
target triple = "x86_64-unknown-linux-gnu"

%"struct.re2::CaseFold" = type { i32, i32, i32 }

; Function Attrs: mustprogress nounwind uwtable
define noundef i32 @_ZN3re29ApplyFoldEPKNS_8CaseFoldEi(ptr noundef %f, i32 noundef %r) #0 {
entry:
  %retval = alloca i32, align 4
  %f.addr = alloca ptr, align 8
  %r.addr = alloca i32, align 4
  store ptr %f, ptr %f.addr, align 8
  store i32 %r, ptr %r.addr, align 4
  %0 = load ptr, ptr %f.addr, align 8
  %delta = getelementptr inbounds %"struct.re2::CaseFold", ptr %0, i32 0, i32 2
  %1 = load i32, ptr %delta, align 4
  switch i32 %1, label %sw.default [
    i32 1073741824, label %sw.bb
    i32 1, label %sw.bb2
    i32 1073741825, label %sw.bb8
    i32 -1, label %sw.bb15
  ]

sw.default:                                       ; preds = %entry
  %2 = load i32, ptr %r.addr, align 4
  %3 = load ptr, ptr %f.addr, align 8
  %delta1 = getelementptr inbounds %"struct.re2::CaseFold", ptr %3, i32 0, i32 2
  %4 = load i32, ptr %delta1, align 4
  %add = add nsw i32 %2, %4
  store i32 %add, ptr %retval, align 4
  br label %return

sw.bb:                                            ; preds = %entry
  %5 = load i32, ptr %r.addr, align 4
  %6 = load ptr, ptr %f.addr, align 8
  %lo = getelementptr inbounds %"struct.re2::CaseFold", ptr %6, i32 0, i32 0
  %7 = load i32, ptr %lo, align 4
  %sub = sub nsw i32 %5, %7
  %rem = srem i32 %sub, 2
  %tobool = icmp ne i32 %rem, 0
  br i1 %tobool, label %if.then, label %if.end

if.then:                                          ; preds = %sw.bb
  %8 = load i32, ptr %r.addr, align 4
  store i32 %8, ptr %retval, align 4
  br label %return

if.end:                                           ; preds = %sw.bb
  br label %sw.bb2

sw.bb2:                                           ; preds = %if.end, %entry
  %9 = load i32, ptr %r.addr, align 4
  %rem3 = srem i32 %9, 2
  %cmp = icmp eq i32 %rem3, 0
  br i1 %cmp, label %if.then4, label %if.end6

if.then4:                                         ; preds = %sw.bb2
  %10 = load i32, ptr %r.addr, align 4
  %add5 = add nsw i32 %10, 1
  store i32 %add5, ptr %retval, align 4
  br label %return

if.end6:                                          ; preds = %sw.bb2
  %11 = load i32, ptr %r.addr, align 4
  %sub7 = sub nsw i32 %11, 1
  store i32 %sub7, ptr %retval, align 4
  br label %return

sw.bb8:                                           ; preds = %entry
  %12 = load i32, ptr %r.addr, align 4
  %13 = load ptr, ptr %f.addr, align 8
  %lo9 = getelementptr inbounds %"struct.re2::CaseFold", ptr %13, i32 0, i32 0
  %14 = load i32, ptr %lo9, align 4
  %sub10 = sub nsw i32 %12, %14
  %rem11 = srem i32 %sub10, 2
  %tobool12 = icmp ne i32 %rem11, 0
  br i1 %tobool12, label %if.then13, label %if.end14

if.then13:                                        ; preds = %sw.bb8
  %15 = load i32, ptr %r.addr, align 4
  store i32 %15, ptr %retval, align 4
  br label %return

if.end14:                                         ; preds = %sw.bb8
  br label %sw.bb15

sw.bb15:                                          ; preds = %if.end14, %entry
  %16 = load i32, ptr %r.addr, align 4
  %rem16 = srem i32 %16, 2
  %cmp17 = icmp eq i32 %rem16, 1
  br i1 %cmp17, label %if.then18, label %if.end20

if.then18:                                        ; preds = %sw.bb15
  %17 = load i32, ptr %r.addr, align 4
  %add19 = add nsw i32 %17, 1
  store i32 %add19, ptr %retval, align 4
  br label %return

if.end20:                                         ; preds = %sw.bb15
  %18 = load i32, ptr %r.addr, align 4
  %sub21 = sub nsw i32 %18, 1
  store i32 %sub21, ptr %retval, align 4
  br label %return

return:                                           ; preds = %if.end20, %if.then18, %if.then13, %if.end6, %if.then4, %if.then, %sw.default
  %19 = load i32, ptr %retval, align 4
  ret i32 %19
}