; Function Attrs: mustprogress nofree norecurse nosync nounwind willreturn memory(argmem: read) uwtable
define noundef i32 @_ZN3re29ApplyFoldEPKNS_8CaseFoldEi(ptr nocapture noundef readonly %f, i32 noundef %r) local_unnamed_addr #12 {
entry:
  %delta = getelementptr inbounds i8, ptr %f, i64 8
  %0 = load i32, ptr %delta, align 4
  switch i32 %0, label %sw.default [
    i32 1073741824, label %sw.bb
    i32 1, label %sw.bb2
    i32 1073741825, label %sw.bb8
    i32 -1, label %sw.bb15
  ]

sw.default:                                       ; preds = %entry
  %add = add nsw i32 %0, %r
  br label %return

sw.bb:                                            ; preds = %entry
  %1 = load i32, ptr %f, align 4
  %sub = sub nsw i32 %r, %1
  %2 = and i32 %sub, 1
  %tobool.not = icmp eq i32 %2, 0
  br i1 %tobool.not, label %sw.bb2, label %return

sw.bb2:                                           ; preds = %sw.bb, %entry
  %3 = and i32 %r, 1
  %cmp = icmp eq i32 %3, 0
  br i1 %cmp, label %if.then4, label %if.end6

if.then4:                                         ; preds = %sw.bb2
  %add5 = or disjoint i32 %r, 1
  br label %return

if.end6:                                          ; preds = %sw.bb2
  %sub7 = add nsw i32 %r, -1
  br label %return

sw.bb8:                                           ; preds = %entry
  %4 = load i32, ptr %f, align 4
  %sub10 = sub nsw i32 %r, %4
  %5 = and i32 %sub10, 1
  %tobool12.not = icmp eq i32 %5, 0
  br i1 %tobool12.not, label %sw.bb15, label %return

sw.bb15:                                          ; preds = %sw.bb8, %entry
  %6 = and i32 %r, -2147483647
  %cmp17 = icmp eq i32 %6, 1
  br i1 %cmp17, label %if.then18, label %if.end20

if.then18:                                        ; preds = %sw.bb15
  %add19 = add nuw nsw i32 %r, 1
  br label %return

if.end20:                                         ; preds = %sw.bb15
  %sub21 = add nsw i32 %r, -1
  br label %return

return:                                           ; preds = %sw.bb8, %sw.bb, %if.end20, %if.then18, %if.end6, %if.then4, %sw.default
  %retval.0 = phi i32 [ %add, %sw.default ], [ %add19, %if.then18 ], [ %sub21, %if.end20 ], [ %add5, %if.then4 ], [ %sub7, %if.end6 ], [ %r, %sw.bb ], [ %r, %sw.bb8 ]
  ret i32 %retval.0
}